; ModuleID = '6/40.c'
source_filename = "6/40.c"
target datalayout = "e-m:e-p270:32:32-p271:32:32-p272:64:64-i64:64-f80:128-n8:16:32:64-S128"
target triple = "x86_64-pc-linux-gnu"

@.str = private unnamed_addr constant [3 x i8] c"%d\00", align 1
@.str.1 = private unnamed_addr constant [6 x i8] c"%d %d\00", align 1
@.str.2 = private unnamed_addr constant [4 x i8] c"%d\0A\00", align 1

; Function Attrs: noinline nounwind uwtable
define dso_local i32 @main() #0 {
  %1 = alloca i32, align 4
  %2 = alloca i32, align 4
  %3 = alloca i32**, align 8
  %4 = alloca i32, align 4
  %5 = alloca i32, align 4
  %6 = alloca i32, align 4
  %7 = alloca i32, align 4
  %8 = alloca i32, align 4
  %9 = alloca i32, align 4
  store i32 0, i32* %1, align 4
  %10 = call i32 (i8*, ...) @__isoc99_scanf(i8* getelementptr inbounds ([3 x i8], [3 x i8]* @.str, i64 0, i64 0), i32* %2)
  store i32 0, i32* %9, align 4
  store i32 0, i32* %6, align 4
  br label %11

11:                                               ; preds = %97, %0
  %12 = load i32, i32* %9, align 4
  %13 = load i32, i32* %2, align 4
  %14 = icmp slt i32 %12, %13
  br i1 %14, label %15, label %100

15:                                               ; preds = %11
  %16 = call i32 (i8*, ...) @__isoc99_scanf(i8* getelementptr inbounds ([6 x i8], [6 x i8]* @.str.1, i64 0, i64 0), i32* %7, i32* %8)
  %17 = load i32, i32* %7, align 4
  %18 = sext i32 %17 to i64
  %19 = mul i64 %18, 8
  %20 = call noalias i8* @malloc(i64 %19) #3
  %21 = bitcast i8* %20 to i32**
  store i32** %21, i32*** %3, align 8
  store i32 0, i32* %4, align 4
  br label %22

22:                                               ; preds = %36, %15
  %23 = load i32, i32* %4, align 4
  %24 = load i32, i32* %7, align 4
  %25 = icmp slt i32 %23, %24
  br i1 %25, label %26, label %39

26:                                               ; preds = %22
  %27 = load i32, i32* %8, align 4
  %28 = sext i32 %27 to i64
  %29 = mul i64 %28, 4
  %30 = call noalias i8* @malloc(i64 %29) #3
  %31 = bitcast i8* %30 to i32*
  %32 = load i32**, i32*** %3, align 8
  %33 = load i32, i32* %4, align 4
  %34 = sext i32 %33 to i64
  %35 = getelementptr inbounds i32*, i32** %32, i64 %34
  store i32* %31, i32** %35, align 8
  br label %36

36:                                               ; preds = %26
  %37 = load i32, i32* %4, align 4
  %38 = add nsw i32 %37, 1
  store i32 %38, i32* %4, align 4
  br label %22

39:                                               ; preds = %22
  store i32 0, i32* %4, align 4
  br label %40

40:                                               ; preds = %91, %39
  %41 = load i32, i32* %4, align 4
  %42 = load i32, i32* %7, align 4
  %43 = icmp slt i32 %41, %42
  br i1 %43, label %44, label %94

44:                                               ; preds = %40
  store i32 0, i32* %5, align 4
  br label %45

45:                                               ; preds = %87, %44
  %46 = load i32, i32* %5, align 4
  %47 = load i32, i32* %8, align 4
  %48 = icmp slt i32 %46, %47
  br i1 %48, label %49, label %90

49:                                               ; preds = %45
  %50 = load i32**, i32*** %3, align 8
  %51 = load i32, i32* %4, align 4
  %52 = sext i32 %51 to i64
  %53 = getelementptr inbounds i32*, i32** %50, i64 %52
  %54 = load i32*, i32** %53, align 8
  %55 = load i32, i32* %5, align 4
  %56 = sext i32 %55 to i64
  %57 = getelementptr inbounds i32, i32* %54, i64 %56
  %58 = call i32 (i8*, ...) @__isoc99_scanf(i8* getelementptr inbounds ([3 x i8], [3 x i8]* @.str, i64 0, i64 0), i32* %57)
  %59 = load i32, i32* %4, align 4
  %60 = icmp eq i32 %59, 0
  br i1 %60, label %74, label %61

61:                                               ; preds = %49
  %62 = load i32, i32* %5, align 4
  %63 = icmp eq i32 %62, 0
  br i1 %63, label %74, label %64

64:                                               ; preds = %61
  %65 = load i32, i32* %4, align 4
  %66 = load i32, i32* %7, align 4
  %67 = sub nsw i32 %66, 1
  %68 = icmp eq i32 %65, %67
  br i1 %68, label %74, label %69

69:                                               ; preds = %64
  %70 = load i32, i32* %5, align 4
  %71 = load i32, i32* %8, align 4
  %72 = sub nsw i32 %71, 1
  %73 = icmp eq i32 %70, %72
  br i1 %73, label %74, label %86

74:                                               ; preds = %69, %64, %61, %49
  %75 = load i32**, i32*** %3, align 8
  %76 = load i32, i32* %4, align 4
  %77 = sext i32 %76 to i64
  %78 = getelementptr inbounds i32*, i32** %75, i64 %77
  %79 = load i32*, i32** %78, align 8
  %80 = load i32, i32* %5, align 4
  %81 = sext i32 %80 to i64
  %82 = getelementptr inbounds i32, i32* %79, i64 %81
  %83 = load i32, i32* %82, align 4
  %84 = load i32, i32* %6, align 4
  %85 = add nsw i32 %84, %83
  store i32 %85, i32* %6, align 4
  br label %86

86:                                               ; preds = %74, %69
  br label %87

87:                                               ; preds = %86
  %88 = load i32, i32* %5, align 4
  %89 = add nsw i32 %88, 1
  store i32 %89, i32* %5, align 4
  br label %45

90:                                               ; preds = %45
  br label %91

91:                                               ; preds = %90
  %92 = load i32, i32* %4, align 4
  %93 = add nsw i32 %92, 1
  store i32 %93, i32* %4, align 4
  br label %40

94:                                               ; preds = %40
  %95 = load i32, i32* %6, align 4
  %96 = call i32 (i8*, ...) @printf(i8* getelementptr inbounds ([4 x i8], [4 x i8]* @.str.2, i64 0, i64 0), i32 %95)
  store i32 0, i32* %6, align 4
  br label %97

97:                                               ; preds = %94
  %98 = load i32, i32* %9, align 4
  %99 = add nsw i32 %98, 1
  store i32 %99, i32* %9, align 4
  br label %11

100:                                              ; preds = %11
  %101 = load i32, i32* %1, align 4
  ret i32 %101
}

declare dso_local i32 @__isoc99_scanf(i8*, ...) #1

; Function Attrs: nounwind
declare dso_local noalias i8* @malloc(i64) #2

declare dso_local i32 @printf(i8*, ...) #1


!llvm.module.flags = !{!0}
!llvm.ident = !{!1}

!0 = !{i32 1, !"wchar_size", i32 4}
!1 = !{!"clang version 10.0.0-4ubuntu1 "}
